; ModuleID = 'source-C-CXX/44/1693.c'
source_filename = "source-C-CXX/44/1693.c"
target datalayout = "e-m:e-p270:32:32-p271:32:32-p272:64:64-i64:64-f80:128-n8:16:32:64-S128"
target triple = "x86_64-pc-linux-gnu"

@.str = private unnamed_addr constant [5 x i8] c"%s%s\00", align 1
@.str.1 = private unnamed_addr constant [4 x i8] c"%d\0A\00", align 1

; Function Attrs: nounwind sspstrong uwtable
define dso_local i32 @main() local_unnamed_addr #0 {
  %1 = alloca [50 x i8], align 16
  %2 = alloca [50 x i8], align 16
  %3 = getelementptr inbounds [50 x i8], [50 x i8]* %1, i64 0, i64 0
  call void @llvm.lifetime.start.p0i8(i64 50, i8* nonnull %3) #8
  %4 = getelementptr inbounds [50 x i8], [50 x i8]* %2, i64 0, i64 0
  call void @llvm.lifetime.start.p0i8(i64 50, i8* nonnull %4) #8
  %5 = call i32 (i8*, ...) @__isoc99_scanf(i8* getelementptr inbounds ([5 x i8], [5 x i8]* @.str, i64 0, i64 0), i8* nonnull %3, i8* nonnull %4)
  %6 = call i64 @strlen(i8* noundef nonnull %3) #9
  %7 = shl i64 %6, 32
  %8 = add i64 %7, 4294967296
  %9 = ashr exact i64 %8, 32
  %10 = call noalias align 16 i8* @malloc(i64 %9) #8
  %11 = call i64 @strlen(i8* noundef nonnull %4) #9
  %12 = load i8, i8* %3, align 16
  %13 = icmp eq i64 %11, 0
  br i1 %13, label %48, label %14

14:                                               ; preds = %0
  %15 = icmp eq i64 %6, 0
  br i1 %15, label %33, label %16

16:                                               ; preds = %14, %31
  %17 = phi i64 [ %19, %31 ], [ 0, %14 ]
  %18 = getelementptr [50 x i8], [50 x i8]* %2, i64 0, i64 %17
  %19 = add nuw i64 %17, 1
  %20 = shl i64 %19, 32
  %21 = ashr exact i64 %20, 32
  %22 = load i8, i8* %18, align 1, !tbaa !5
  %23 = icmp eq i8 %22, %12
  br i1 %23, label %24, label %31

24:                                               ; preds = %16
  %25 = sub i64 %21, %17
  %26 = call i64 @llvm.umax.i64(i64 %6, i64 %25)
  %27 = add i64 %26, %19
  %28 = sub i64 %27, %21
  call void @llvm.memcpy.p0i8.p0i8.i64(i8* align 16 %10, i8* nonnull align 1 %18, i64 %28, i1 false)
  %29 = call i32 @strcmp(i8* noundef nonnull dereferenceable(1) %10, i8* noundef nonnull %3) #9
  %30 = icmp eq i32 %29, 0
  br i1 %30, label %41, label %31

31:                                               ; preds = %24, %16
  %32 = icmp eq i64 %19, %11
  br i1 %32, label %48, label %16, !llvm.loop !8

33:                                               ; preds = %14, %45
  %34 = phi i64 [ %46, %45 ], [ 0, %14 ]
  %35 = getelementptr inbounds [50 x i8], [50 x i8]* %2, i64 0, i64 %34
  %36 = load i8, i8* %35, align 1, !tbaa !5
  %37 = icmp eq i8 %36, %12
  br i1 %37, label %38, label %45

38:                                               ; preds = %33
  %39 = call i32 @strcmp(i8* noundef nonnull dereferenceable(1) %10, i8* noundef nonnull %3) #9
  %40 = icmp eq i32 %39, 0
  br i1 %40, label %41, label %45

41:                                               ; preds = %24, %38
  %42 = phi i64 [ %34, %38 ], [ %17, %24 ]
  %43 = trunc i64 %42 to i32
  %44 = call i32 (i8*, ...) @printf(i8* nonnull dereferenceable(1) getelementptr inbounds ([4 x i8], [4 x i8]* @.str.1, i64 0, i64 0), i32 %43)
  br label %48

45:                                               ; preds = %38, %33
  %46 = add nuw i64 %34, 1
  %47 = icmp eq i64 %46, %11
  br i1 %47, label %48, label %33, !llvm.loop !8

48:                                               ; preds = %31, %45, %0, %41
  call void @free(i8* %10) #8
  call void @llvm.lifetime.end.p0i8(i64 50, i8* nonnull %4) #8
  call void @llvm.lifetime.end.p0i8(i64 50, i8* nonnull %3) #8
  ret i32 0
}

; Function Attrs: argmemonly mustprogress nofree nosync nounwind willreturn
declare void @llvm.lifetime.start.p0i8(i64 immarg, i8* nocapture) #1

; Function Attrs: nofree nounwind
declare noundef i32 @__isoc99_scanf(i8* nocapture noundef readonly, ...) local_unnamed_addr #2

; Function Attrs: argmemonly mustprogress nofree nounwind readonly willreturn
declare i64 @strlen(i8* nocapture) local_unnamed_addr #3

; Function Attrs: inaccessiblememonly mustprogress nofree nounwind willreturn
declare noalias noundef align 16 i8* @malloc(i64 noundef) local_unnamed_addr #4

; Function Attrs: argmemonly mustprogress nofree nounwind readonly willreturn
declare i32 @strcmp(i8* nocapture, i8* nocapture) local_unnamed_addr #3

; Function Attrs: nofree nounwind
declare noundef i32 @printf(i8* nocapture noundef readonly, ...) local_unnamed_addr #2

; Function Attrs: argmemonly mustprogress nofree nosync nounwind willreturn
declare void @llvm.lifetime.end.p0i8(i64 immarg, i8* nocapture) #1

; Function Attrs: inaccessiblemem_or_argmemonly mustprogress nounwind willreturn
declare void @free(i8* nocapture noundef) local_unnamed_addr #5

; Function Attrs: nofree nosync nounwind readnone speculatable willreturn
declare i64 @llvm.umax.i64(i64, i64) #6

; Function Attrs: argmemonly nofree nounwind willreturn
declare void @llvm.memcpy.p0i8.p0i8.i64(i8* noalias nocapture writeonly, i8* noalias nocapture readonly, i64, i1 immarg) #7


!llvm.module.flags = !{!0, !1, !2, !3}
!llvm.ident = !{!4}

!0 = !{i32 1, !"wchar_size", i32 4}
!1 = !{i32 7, !"PIC Level", i32 2}
!2 = !{i32 7, !"PIE Level", i32 2}
!3 = !{i32 7, !"uwtable", i32 1}
!4 = !{!"clang version 13.0.0"}
!5 = !{!6, !6, i64 0}
!6 = !{!"omnipotent char", !7, i64 0}
!7 = !{!"Simple C/C++ TBAA"}
!8 = distinct !{!8, !9}
!9 = !{!"llvm.loop.mustprogress"}
